; ModuleID = '19/1279.c'
source_filename = "19/1279.c"
target datalayout = "e-m:e-p270:32:32-p271:32:32-p272:64:64-i64:64-f80:128-n8:16:32:64-S128"
target triple = "x86_64-pc-linux-gnu"

@.str = private unnamed_addr constant [4 x i8] c"%s \00", align 1
@.str.1 = private unnamed_addr constant [3 x i8] c"%s\00", align 1

; Function Attrs: noinline nounwind uwtable
define dso_local i32 @main() #0 {
  %1 = alloca i32, align 4
  %2 = alloca i8*, align 8
  %3 = alloca i8*, align 8
  %4 = alloca i8*, align 8
  %5 = alloca i8*, align 8
  %6 = alloca i32, align 4
  store i32 0, i32* %1, align 4
  %7 = call noalias i8* @malloc(i64 100) #4
  store i8* %7, i8** %2, align 8
  %8 = call noalias i8* @malloc(i64 20) #4
  store i8* %8, i8** %3, align 8
  %9 = call noalias i8* @malloc(i64 20) #4
  store i8* %9, i8** %4, align 8
  %10 = load i8*, i8** %2, align 8
  %11 = call i32 (i8*, ...) bitcast (i32 (...)* @gets to i32 (i8*, ...)*)(i8* %10)
  %12 = load i8*, i8** %3, align 8
  %13 = call i32 (i8*, ...) bitcast (i32 (...)* @gets to i32 (i8*, ...)*)(i8* %12)
  %14 = load i8*, i8** %4, align 8
  %15 = call i32 (i8*, ...) bitcast (i32 (...)* @gets to i32 (i8*, ...)*)(i8* %14)
  %16 = load i8*, i8** %2, align 8
  store i8* %16, i8** %5, align 8
  br label %17

17:                                               ; preds = %52, %0
  %18 = load i8*, i8** %2, align 8
  %19 = load i8, i8* %18, align 1
  %20 = sext i8 %19 to i32
  %21 = icmp ne i32 %20, 0
  br i1 %21, label %22, label %53

22:                                               ; preds = %17
  %23 = load i8*, i8** %2, align 8
  %24 = load i8, i8* %23, align 1
  %25 = sext i8 %24 to i32
  %26 = icmp ne i32 %25, 32
  br i1 %26, label %27, label %30

27:                                               ; preds = %22
  %28 = load i8*, i8** %2, align 8
  %29 = getelementptr inbounds i8, i8* %28, i64 1
  store i8* %29, i8** %2, align 8
  br label %52

30:                                               ; preds = %22
  %31 = load i8*, i8** %2, align 8
  %32 = load i8, i8* %31, align 1
  %33 = sext i8 %32 to i32
  %34 = icmp eq i32 %33, 32
  br i1 %34, label %35, label %51

35:                                               ; preds = %30
  %36 = load i8*, i8** %2, align 8
  store i8 0, i8* %36, align 1
  %37 = load i8*, i8** %2, align 8
  %38 = getelementptr inbounds i8, i8* %37, i64 1
  store i8* %38, i8** %2, align 8
  %39 = load i8*, i8** %5, align 8
  %40 = load i8*, i8** %3, align 8
  %41 = call i32 @strcmp(i8* %39, i8* %40) #5
  %42 = icmp eq i32 %41, 0
  br i1 %42, label %43, label %46

43:                                               ; preds = %35
  %44 = load i8*, i8** %4, align 8
  %45 = call i32 (i8*, ...) @printf(i8* getelementptr inbounds ([4 x i8], [4 x i8]* @.str, i64 0, i64 0), i8* %44)
  br label %49

46:                                               ; preds = %35
  %47 = load i8*, i8** %5, align 8
  %48 = call i32 (i8*, ...) @printf(i8* getelementptr inbounds ([4 x i8], [4 x i8]* @.str, i64 0, i64 0), i8* %47)
  br label %49

49:                                               ; preds = %46, %43
  %50 = load i8*, i8** %2, align 8
  store i8* %50, i8** %5, align 8
  br label %51

51:                                               ; preds = %49, %30
  br label %52

52:                                               ; preds = %51, %27
  br label %17

53:                                               ; preds = %17
  %54 = load i8*, i8** %5, align 8
  %55 = load i8*, i8** %3, align 8
  %56 = call i32 @strcmp(i8* %54, i8* %55) #5
  %57 = icmp eq i32 %56, 0
  br i1 %57, label %58, label %61

58:                                               ; preds = %53
  %59 = load i8*, i8** %4, align 8
  %60 = call i32 (i8*, ...) @printf(i8* getelementptr inbounds ([3 x i8], [3 x i8]* @.str.1, i64 0, i64 0), i8* %59)
  br label %64

61:                                               ; preds = %53
  %62 = load i8*, i8** %5, align 8
  %63 = call i32 (i8*, ...) @printf(i8* getelementptr inbounds ([3 x i8], [3 x i8]* @.str.1, i64 0, i64 0), i8* %62)
  br label %64

64:                                               ; preds = %61, %58
  ret i32 0
}

; Function Attrs: nounwind
declare dso_local noalias i8* @malloc(i64) #1

declare dso_local i32 @gets(...) #2

; Function Attrs: nounwind readonly
declare dso_local i32 @strcmp(i8*, i8*) #3

declare dso_local i32 @printf(i8*, ...) #2


!llvm.module.flags = !{!0}
!llvm.ident = !{!1}

!0 = !{i32 1, !"wchar_size", i32 4}
!1 = !{!"clang version 10.0.0-4ubuntu1 "}
