; ModuleID = 'source-C-CXX/18/1279.c'
source_filename = "source-C-CXX/18/1279.c"
target datalayout = "e-m:e-p270:32:32-p271:32:32-p272:64:64-i64:64-f80:128-n8:16:32:64-S128"
target triple = "x86_64-pc-linux-gnu"

@.str = private unnamed_addr constant [4 x i8] c"%s \00", align 1
@.str.1 = private unnamed_addr constant [3 x i8] c"%s\00", align 1

; Function Attrs: nounwind sspstrong uwtable
define dso_local i32 @main() local_unnamed_addr #0 {
  %1 = tail call noalias align 16 dereferenceable_or_null(100) i8* @malloc(i64 100) #5
  %2 = tail call noalias align 16 dereferenceable_or_null(20) i8* @malloc(i64 20) #5
  %3 = tail call noalias align 16 dereferenceable_or_null(20) i8* @malloc(i64 20) #5
  %4 = tail call i32 (i8*, ...) bitcast (i32 (...)* @gets to i32 (i8*, ...)*)(i8* %1) #5
  %5 = tail call i32 (i8*, ...) bitcast (i32 (...)* @gets to i32 (i8*, ...)*)(i8* %2) #5
  %6 = tail call i32 (i8*, ...) bitcast (i32 (...)* @gets to i32 (i8*, ...)*)(i8* %3) #5
  br label %7

7:                                                ; preds = %22, %0
  %8 = phi i8* [ %1, %0 ], [ %15, %22 ]
  br label %9

9:                                                ; preds = %7, %12
  %10 = phi i8* [ %13, %12 ], [ %8, %7 ]
  %11 = load i8, i8* %10, align 1, !tbaa !5
  switch i8 %11, label %12 [
    i8 0, label %23
    i8 32, label %14
  ]

12:                                               ; preds = %9
  %13 = getelementptr inbounds i8, i8* %10, i64 1
  br label %9, !llvm.loop !8

14:                                               ; preds = %9
  store i8 0, i8* %10, align 1, !tbaa !5
  %15 = getelementptr inbounds i8, i8* %10, i64 1
  %16 = tail call i32 @strcmp(i8* noundef nonnull dereferenceable(1) %8, i8* noundef nonnull dereferenceable(1) %2) #6
  %17 = icmp eq i32 %16, 0
  br i1 %17, label %18, label %20

18:                                               ; preds = %14
  %19 = tail call i32 (i8*, ...) @printf(i8* nonnull dereferenceable(1) getelementptr inbounds ([4 x i8], [4 x i8]* @.str, i64 0, i64 0), i8* %3)
  br label %22

20:                                               ; preds = %14
  %21 = tail call i32 (i8*, ...) @printf(i8* nonnull dereferenceable(1) getelementptr inbounds ([4 x i8], [4 x i8]* @.str, i64 0, i64 0), i8* %8)
  br label %22

22:                                               ; preds = %20, %18
  br label %7, !llvm.loop !8

23:                                               ; preds = %9
  %24 = tail call i32 @strcmp(i8* noundef nonnull dereferenceable(1) %8, i8* noundef nonnull dereferenceable(1) %2) #6
  %25 = icmp eq i32 %24, 0
  %26 = select i1 %25, i8* %3, i8* %8
  %27 = tail call i32 (i8*, ...) @printf(i8* nonnull dereferenceable(1) getelementptr inbounds ([3 x i8], [3 x i8]* @.str.1, i64 0, i64 0), i8* %26)
  ret i32 0
}

; Function Attrs: inaccessiblememonly mustprogress nofree nounwind willreturn
declare noalias noundef align 16 i8* @malloc(i64 noundef) local_unnamed_addr #1

declare i32 @gets(...) local_unnamed_addr #2

; Function Attrs: argmemonly mustprogress nofree nounwind readonly willreturn
declare i32 @strcmp(i8* nocapture, i8* nocapture) local_unnamed_addr #3

; Function Attrs: nofree nounwind
declare noundef i32 @printf(i8* nocapture noundef readonly, ...) local_unnamed_addr #4


!llvm.module.flags = !{!0, !1, !2, !3}
!llvm.ident = !{!4}

!0 = !{i32 1, !"wchar_size", i32 4}
!1 = !{i32 7, !"PIC Level", i32 2}
!2 = !{i32 7, !"PIE Level", i32 2}
!3 = !{i32 7, !"uwtable", i32 1}
!4 = !{!"clang version 13.0.0"}
!5 = !{!6, !6, i64 0}
!6 = !{!"omnipotent char", !7, i64 0}
!7 = !{!"Simple C/C++ TBAA"}
!8 = distinct !{!8, !9}
!9 = !{!"llvm.loop.mustprogress"}
